; Function Attrs: mustprogress nounwind uwtable
define internal void @"_ZNSt17_Function_handlerIFvPKcEZ4mainE4$_45E9_M_invokeERKSt9_Any_dataOS1_"(ptr nocapture noundef nonnull readonly align 8 dereferenceable(16) %0, ptr nocapture noundef nonnull readonly align 8 dereferenceable(8) %1) #10 align 2 {
  %.val = load ptr, ptr %1, align 8
  %3 = tail call noalias ptr @fopen(ptr noundef %.val, ptr noundef nonnull @.str.126)
  %4 = load ptr, ptr %0, align 8
  store ptr %3, ptr %4, align 8
  %5 = icmp eq ptr %3, null
  br i1 %5, label %6, label %"_ZSt10__invoke_rIvRZ4mainE4$_45JPKcEENSt9enable_ifIX16is_invocable_r_vIT_T0_DpT1_EES5_E4typeEOS6_DpOS7_.exit"

6:                                                ; preds = %2
  %7 = load ptr, ptr @stderr, align 8
  %8 = tail call i32 (ptr, ptr, ...) @fprintf(ptr noundef %7, ptr noundef nonnull @.str.127, ptr noundef %.val) #36
  tail call void @exit(i32 noundef -1) #30
  unreachable

"_ZSt10__invoke_rIvRZ4mainE4$_45JPKcEENSt9enable_ifIX16is_invocable_r_vIT_T0_DpT1_EES5_E4typeEOS6_DpOS7_.exit": ; preds = %2
  ret void
}